target datalayout = "e-m:e-p270:32:32-p271:32:32-p272:64:64-i64:64-i128:128-f80:128-n8:16:32:64-S128"
target triple = "x86_64-pc-linux-gnu"

@stderr = external global ptr, align 8
@.str.1 = private unnamed_addr constant [2 x i8] c"\0A\00", align 1
@.str.3 = private unnamed_addr constant [15 x i8] c"ninja: error: \00", align 1

; Function Attrs: mustprogress nounwind uwtable
define dso_local void @_Z5ErrorPKcP13__va_list_tag(ptr noundef %0, ptr noundef %1) #5 {
  %3 = alloca ptr, align 8
  %4 = alloca ptr, align 8
  store ptr %0, ptr %3, align 8, !tbaa !4
  store ptr %1, ptr %4, align 8, !tbaa !11
  %5 = load ptr, ptr @stderr, align 8, !tbaa !9
  %6 = call i32 (ptr, ptr, ...) @fprintf(ptr noundef %5, ptr noundef @.str.3) #21
  %7 = load ptr, ptr @stderr, align 8, !tbaa !9
  %8 = load ptr, ptr %3, align 8, !tbaa !4
  %9 = load ptr, ptr %4, align 8, !tbaa !11
  %10 = call i32 @vfprintf(ptr noundef %7, ptr noundef %8, ptr noundef %9) #21
  %11 = load ptr, ptr @stderr, align 8, !tbaa !9
  %12 = call i32 (ptr, ptr, ...) @fprintf(ptr noundef %11, ptr noundef @.str.1) #21
  ret void
}